; Function Attrs: nounwind uwtable
define range(i32 -1, 1) i32 @H5PLget_loading_state(ptr noundef %0) local_unnamed_addr #0 {
  %2 = load i8, ptr @H5_libinit_g, align 1
  %3 = trunc i8 %2 to i1
  %4 = load i8, ptr @H5_libterm_g, align 1
  %5 = trunc i8 %4 to i1
  %6 = select i1 %3, i1 true, i1 %5
  br i1 %6, label %14, label %7

7:                                                ; preds = %1
  %8 = tail call i32 @H5_init_library() #4
  %9 = icmp slt i32 %8, 0
  br i1 %9, label %10, label %14

10:                                               ; preds = %7
  %11 = load i64, ptr @H5E_FUNC_g, align 8
  %12 = load i64, ptr @H5E_CANTINIT_g, align 8
  %13 = tail call i32 (ptr, ptr, i32, i64, i64, ptr, ...) @H5E_printf_stack(ptr noundef nonnull @.str, ptr noundef nonnull @__func__.H5PLget_loading_state, i32 noundef 110, i64 noundef %11, i64 noundef %12, ptr noundef nonnull @.str.1) #4
  br label %.thread19

14:                                               ; preds = %7, %1
  %15 = tail call i32 @H5CX_push() #4
  %16 = icmp slt i32 %15, 0
  br i1 %16, label %17, label %21

17:                                               ; preds = %14
  %18 = load i64, ptr @H5E_FUNC_g, align 8
  %19 = load i64, ptr @H5E_CANTSET_g, align 8
  %20 = tail call i32 (ptr, ptr, i32, i64, i64, ptr, ...) @H5E_printf_stack(ptr noundef nonnull @.str, ptr noundef nonnull @__func__.H5PLget_loading_state, i32 noundef 110, i64 noundef %18, i64 noundef %19, ptr noundef nonnull @.str.2) #4
  br label %.thread19

21:                                               ; preds = %14
  %22 = tail call i32 @H5E_clear_stack() #4
  %23 = icmp eq ptr %0, null
  br i1 %23, label %24, label %28

24:                                               ; preds = %21
  %25 = load i64, ptr @H5E_ARGS_g, align 8
  %26 = load i64, ptr @H5E_BADVALUE_g, align 8
  %27 = tail call i32 (ptr, ptr, i32, i64, i64, ptr, ...) @H5E_printf_stack(ptr noundef nonnull @.str, ptr noundef nonnull @__func__.H5PLget_loading_state, i32 noundef 113, i64 noundef %25, i64 noundef %26, ptr noundef nonnull @.str.4) #4
  br label %.thread25

28:                                               ; preds = %21
  %29 = tail call i32 @H5PL__get_plugin_control_mask(ptr noundef nonnull %0) #4
  %30 = icmp slt i32 %29, 0
  br i1 %30, label %31, label %36

31:                                               ; preds = %28
  %32 = load i64, ptr @H5E_ARGS_g, align 8
  %33 = load i64, ptr @H5E_CANTGET_g, align 8
  %34 = tail call i32 (ptr, ptr, i32, i64, i64, ptr, ...) @H5E_printf_stack(ptr noundef nonnull @.str, ptr noundef nonnull @__func__.H5PLget_loading_state, i32 noundef 117, i64 noundef %32, i64 noundef %33, ptr noundef nonnull @.str.5) #4
  br label %.thread25

.thread25:                                        ; preds = %31, %24
  %35 = tail call i32 @H5CX_pop(i1 noundef zeroext true) #4
  br label %.thread19

36:                                               ; preds = %28
  %37 = tail call i32 @H5CX_pop(i1 noundef zeroext true) #4
  br label %39

.thread19:                                        ; preds = %17, %10, %.thread25
  %38 = tail call i32 @H5E_dump_api_stack() #4
  br label %39

39:                                               ; preds = %36, %.thread19
  %.091422 = phi i32 [ -1, %.thread19 ], [ 0, %36 ]
  ret i32 %.091422
}